; Function Attrs: nounwind uwtable
define hidden i32 @mbedtls_psa_rsa_import_key(ptr noundef readonly captures(none) %0, ptr noundef %1, i64 noundef %2, ptr noundef %3, i64 noundef %4, ptr noundef writeonly captures(none) %5, ptr noundef writeonly captures(none) %6) local_unnamed_addr #0 {
  %8 = alloca ptr, align 8
  %9 = alloca ptr, align 8
  call void @llvm.lifetime.start.p0(i64 8, ptr nonnull %9) #9
  %10 = load i16, ptr %0, align 4, !tbaa !8
  %11 = call i32 @mbedtls_psa_rsa_load_representation(i16 noundef zeroext %10, ptr noundef %1, i64 noundef %2, ptr noundef nonnull %9)
  %.not = icmp eq i32 %11, 0
  %.pre = load ptr, ptr %9, align 8, !tbaa !3
  br i1 %.not, label %12, label %42

12:                                               ; preds = %7
  %13 = tail call i64 @mbedtls_rsa_get_len(ptr noundef %.pre) #9
  %14 = shl i64 %13, 3
  %15 = and i64 %14, 65528
  store i64 %15, ptr %6, align 8, !tbaa !13
  %16 = load i16, ptr %0, align 4, !tbaa !8
  call void @llvm.lifetime.start.p0(i64 8, ptr nonnull %8) #9
  %17 = getelementptr inbounds nuw i8, ptr %3, i64 %4
  store ptr %17, ptr %8, align 8, !tbaa !15
  %18 = and i16 %16, 28672
  %19 = icmp eq i16 %18, 28672
  br i1 %19, label %20, label %22

20:                                               ; preds = %12
  %21 = call i32 @mbedtls_rsa_write_key(ptr noundef %.pre, ptr noundef %3, ptr noundef nonnull %8) #9
  br label %24

22:                                               ; preds = %12
  %23 = call i32 @mbedtls_rsa_write_pubkey(ptr noundef %.pre, ptr noundef %3, ptr noundef nonnull %8) #9
  br label %24

24:                                               ; preds = %22, %20
  %.0.i = phi i32 [ %21, %20 ], [ %23, %22 ]
  %25 = icmp slt i32 %.0.i, 0
  br i1 %25, label %26, label %28

26:                                               ; preds = %24
  call void @llvm.memset.p0.i64(ptr align 1 %3, i8 0, i64 %4, i1 false)
  %27 = call i32 @mbedtls_to_psa_error(i32 noundef %.0.i) #9
  br label %mbedtls_psa_rsa_export_key.exit

28:                                               ; preds = %24
  %29 = zext nneg i32 %.0.i to i64
  %30 = shl nuw nsw i64 %29, 1
  %.not.i = icmp ugt i64 %30, %4
  br i1 %.not.i, label %34, label %31

31:                                               ; preds = %28
  %32 = sub nsw i64 0, %29
  %33 = getelementptr inbounds i8, ptr %17, i64 %32
  call void @llvm.memcpy.p0.p0.i64(ptr align 1 %3, ptr align 1 %33, i64 %29, i1 false)
  call void @llvm.memset.p0.i64(ptr align 1 %33, i8 0, i64 %29, i1 false)
  br label %41

34:                                               ; preds = %28
  %35 = icmp samesign ugt i64 %4, %29
  br i1 %35, label %36, label %41

36:                                               ; preds = %34
  %37 = sub nsw i64 0, %29
  %38 = getelementptr inbounds i8, ptr %17, i64 %37
  call void @llvm.memmove.p0.p0.i64(ptr align 1 %3, ptr nonnull align 1 %38, i64 %29, i1 false)
  %39 = getelementptr inbounds nuw i8, ptr %3, i64 %29
  %40 = sub nuw nsw i64 %4, %29
  call void @llvm.memset.p0.i64(ptr align 1 %39, i8 0, i64 %40, i1 false)
  br label %41

41:                                               ; preds = %36, %34, %31
  store i64 %29, ptr %5, align 8, !tbaa !13
  br label %mbedtls_psa_rsa_export_key.exit

mbedtls_psa_rsa_export_key.exit:                  ; preds = %26, %41
  %.035.i = phi i32 [ %27, %26 ], [ 0, %41 ]
  call void @llvm.lifetime.end.p0(i64 8, ptr nonnull %8) #9
  br label %42

42:                                               ; preds = %7, %mbedtls_psa_rsa_export_key.exit
  %.0 = phi i32 [ %11, %7 ], [ %.035.i, %mbedtls_psa_rsa_export_key.exit ]
  call void @mbedtls_rsa_free(ptr noundef %.pre) #9
  call void @free(ptr noundef %.pre) #9
  call void @llvm.lifetime.end.p0(i64 8, ptr nonnull %9) #9
  ret i32 %.0
}